; Function Attrs: mustprogress uwtable
define noundef zeroext i1 @_ZNK3g2o18ParameterContainer5writeERSo(ptr noundef nonnull readonly align 8 captures(address) dereferenceable(57) %0, ptr noundef nonnull align 8 dereferenceable(8) %1) unnamed_addr #7 align 2 {
  %3 = tail call noundef ptr @_ZN3g2o7Factory8instanceEv()
  %4 = getelementptr inbounds nuw i8, ptr %0, i64 32
  %5 = load ptr, ptr %4, align 8, !tbaa !13
  %6 = getelementptr inbounds nuw i8, ptr %0, i64 16
  %invariant.gep = getelementptr i8, ptr %1, i64 240
  %.not11 = icmp eq ptr %5, %6
  br i1 %.not11, label %._crit_edge, label %.lr.ph

._crit_edge:                                      ; preds = %_ZSt4endlIcSt11char_traitsIcEERSt13basic_ostreamIT_T0_ES6_.exit, %2
  ret i1 true

.lr.ph:                                           ; preds = %2, %_ZSt4endlIcSt11char_traitsIcEERSt13basic_ostreamIT_T0_ES6_.exit
  %.sroa.06.012 = phi ptr [ %42, %_ZSt4endlIcSt11char_traitsIcEERSt13basic_ostreamIT_T0_ES6_.exit ], [ %5, %2 ]
  %7 = getelementptr inbounds nuw i8, ptr %.sroa.06.012, i64 40
  %8 = load ptr, ptr %7, align 8, !tbaa !28
  %9 = tail call noundef nonnull align 8 dereferenceable(32) ptr @_ZNK3g2o7Factory3tagB5cxx11EPKNS_10HyperGraph17HyperGraphElementE(ptr noundef nonnull align 8 dereferenceable(96) %3, ptr noundef %8)
  %10 = load ptr, ptr %9, align 8, !tbaa !42
  %11 = getelementptr inbounds nuw i8, ptr %9, i64 8
  %12 = load i64, ptr %11, align 8, !tbaa !46
  %13 = tail call noundef nonnull align 8 dereferenceable(8) ptr @_ZSt16__ostream_insertIcSt11char_traitsIcEERSt13basic_ostreamIT_T0_ES6_PKS3_l(ptr noundef nonnull align 8 dereferenceable(8) %1, ptr noundef %10, i64 noundef %12)
  %14 = tail call noundef nonnull align 8 dereferenceable(8) ptr @_ZSt16__ostream_insertIcSt11char_traitsIcEERSt13basic_ostreamIT_T0_ES6_PKS3_l(ptr noundef nonnull align 8 dereferenceable(8) %13, ptr noundef nonnull @.str, i64 noundef 1)
  %15 = load ptr, ptr %7, align 8, !tbaa !28
  %16 = getelementptr inbounds nuw i8, ptr %15, i64 8
  %17 = load i32, ptr %16, align 8, !tbaa !34
  %18 = tail call noundef nonnull align 8 dereferenceable(8) ptr @_ZNSolsEi(ptr noundef nonnull align 8 dereferenceable(8) %1, i32 noundef %17)
  %19 = tail call noundef nonnull align 8 dereferenceable(8) ptr @_ZSt16__ostream_insertIcSt11char_traitsIcEERSt13basic_ostreamIT_T0_ES6_PKS3_l(ptr noundef nonnull align 8 dereferenceable(8) %18, ptr noundef nonnull @.str, i64 noundef 1)
  %20 = load ptr, ptr %7, align 8, !tbaa !28
  %21 = load ptr, ptr %20, align 8, !tbaa !16
  %22 = getelementptr inbounds nuw i8, ptr %21, i64 32
  %23 = load ptr, ptr %22, align 8
  %24 = tail call noundef zeroext i1 %23(ptr noundef nonnull align 8 dereferenceable(12) %20, ptr noundef nonnull align 8 dereferenceable(8) %1)
  %25 = load ptr, ptr %1, align 8, !tbaa !16
  %26 = getelementptr i8, ptr %25, i64 -24
  %27 = load i64, ptr %26, align 8
  %gep = getelementptr i8, ptr %invariant.gep, i64 %27
  %28 = load ptr, ptr %gep, align 8, !tbaa !47
  %.not.i.i.i = icmp eq ptr %28, null
  br i1 %.not.i.i.i, label %29, label %_ZSt13__check_facetISt5ctypeIcEERKT_PS3_.exit.i.i

29:                                               ; preds = %.lr.ph
  tail call void @_ZSt16__throw_bad_castv() #23
  unreachable

_ZSt13__check_facetISt5ctypeIcEERKT_PS3_.exit.i.i: ; preds = %.lr.ph
  %30 = getelementptr inbounds nuw i8, ptr %28, i64 56
  %31 = load i8, ptr %30, align 8, !tbaa !62
  %.not.i1.i.i = icmp eq i8 %31, 0
  br i1 %.not.i1.i.i, label %35, label %32

32:                                               ; preds = %_ZSt13__check_facetISt5ctypeIcEERKT_PS3_.exit.i.i
  %33 = getelementptr inbounds nuw i8, ptr %28, i64 67
  %34 = load i8, ptr %33, align 1, !tbaa !68
  br label %_ZSt4endlIcSt11char_traitsIcEERSt13basic_ostreamIT_T0_ES6_.exit

35:                                               ; preds = %_ZSt13__check_facetISt5ctypeIcEERKT_PS3_.exit.i.i
  tail call void @_ZNKSt5ctypeIcE13_M_widen_initEv(ptr noundef nonnull align 8 dereferenceable(570) %28)
  %36 = load ptr, ptr %28, align 8, !tbaa !16
  %37 = getelementptr inbounds nuw i8, ptr %36, i64 48
  %38 = load ptr, ptr %37, align 8
  %39 = tail call noundef signext i8 %38(ptr noundef nonnull align 8 dereferenceable(570) %28, i8 noundef signext 10)
  br label %_ZSt4endlIcSt11char_traitsIcEERSt13basic_ostreamIT_T0_ES6_.exit

_ZSt4endlIcSt11char_traitsIcEERSt13basic_ostreamIT_T0_ES6_.exit: ; preds = %32, %35
  %.0.i.i.i = phi i8 [ %34, %32 ], [ %39, %35 ]
  %40 = tail call noundef nonnull align 8 dereferenceable(8) ptr @_ZNSo3putEc(ptr noundef nonnull align 8 dereferenceable(8) %1, i8 noundef signext %.0.i.i.i)
  %41 = tail call noundef nonnull align 8 dereferenceable(8) ptr @_ZNSo5flushEv(ptr noundef nonnull align 8 dereferenceable(8) %40)
  %42 = tail call noundef ptr @_ZSt18_Rb_tree_incrementPKSt18_Rb_tree_node_base(ptr noundef nonnull %.sroa.06.012) #20
  %.not = icmp eq ptr %42, %6
  br i1 %.not, label %._crit_edge, label %.lr.ph, !llvm.loop !69
}